; ModuleID = '29/1120.c'
source_filename = "29/1120.c"
target datalayout = "e-m:e-p270:32:32-p271:32:32-p272:64:64-i64:64-f80:128-n8:16:32:64-S128"
target triple = "x86_64-pc-linux-gnu"

@.str = private unnamed_addr constant [3 x i8] c"%d\00", align 1
@.str.1 = private unnamed_addr constant [7 x i8] c"%.3lf\0A\00", align 1

; Function Attrs: noinline nounwind uwtable
define dso_local i32 @main() #0 {
  %1 = alloca i32, align 4
  %2 = alloca i32, align 4
  %3 = alloca i32, align 4
  %4 = alloca i32, align 4
  %5 = alloca i32, align 4
  %6 = alloca double, align 8
  %7 = alloca double*, align 8
  %8 = alloca double*, align 8
  store i32 0, i32* %1, align 4
  %9 = call i32 (i8*, ...) @__isoc99_scanf(i8* getelementptr inbounds ([3 x i8], [3 x i8]* @.str, i64 0, i64 0), i32* %2)
  store i32 1, i32* %4, align 4
  br label %10

10:                                               ; preds = %102, %0
  %11 = load i32, i32* %4, align 4
  %12 = load i32, i32* %2, align 4
  %13 = icmp sle i32 %11, %12
  br i1 %13, label %14, label %105

14:                                               ; preds = %10
  %15 = call i32 (i8*, ...) @__isoc99_scanf(i8* getelementptr inbounds ([3 x i8], [3 x i8]* @.str, i64 0, i64 0), i32* %3)
  %16 = load i32, i32* %3, align 4
  %17 = sext i32 %16 to i64
  %18 = mul i64 8, %17
  %19 = call noalias i8* @malloc(i64 %18) #3
  %20 = bitcast i8* %19 to double*
  store double* %20, double** %7, align 8
  %21 = load i32, i32* %3, align 4
  %22 = sext i32 %21 to i64
  %23 = mul i64 8, %22
  %24 = call noalias i8* @malloc(i64 %23) #3
  %25 = bitcast i8* %24 to double*
  store double* %25, double** %8, align 8
  %26 = load double*, double** %7, align 8
  %27 = getelementptr inbounds double, double* %26, i64 0
  store double 2.000000e+00, double* %27, align 8
  %28 = load double*, double** %7, align 8
  %29 = getelementptr inbounds double, double* %28, i64 1
  store double 3.000000e+00, double* %29, align 8
  %30 = load double*, double** %8, align 8
  %31 = getelementptr inbounds double, double* %30, i64 0
  store double 1.000000e+00, double* %31, align 8
  %32 = load double*, double** %8, align 8
  %33 = getelementptr inbounds double, double* %32, i64 1
  store double 2.000000e+00, double* %33, align 8
  %34 = load i32, i32* %3, align 4
  %35 = icmp eq i32 %34, 1
  br i1 %35, label %36, label %37

36:                                               ; preds = %14
  store double 2.000000e+00, double* %6, align 8
  br label %99

37:                                               ; preds = %14
  %38 = load i32, i32* %3, align 4
  %39 = icmp eq i32 %38, 2
  br i1 %39, label %40, label %41

40:                                               ; preds = %37
  store double 3.500000e+00, double* %6, align 8
  br label %98

41:                                               ; preds = %37
  store double 3.500000e+00, double* %6, align 8
  store i32 2, i32* %5, align 4
  br label %42

42:                                               ; preds = %94, %41
  %43 = load i32, i32* %5, align 4
  %44 = load i32, i32* %3, align 4
  %45 = icmp slt i32 %43, %44
  br i1 %45, label %46, label %97

46:                                               ; preds = %42
  %47 = load double*, double** %7, align 8
  %48 = load i32, i32* %5, align 4
  %49 = sub nsw i32 %48, 1
  %50 = sext i32 %49 to i64
  %51 = getelementptr inbounds double, double* %47, i64 %50
  %52 = load double, double* %51, align 8
  %53 = load double*, double** %7, align 8
  %54 = load i32, i32* %5, align 4
  %55 = sub nsw i32 %54, 2
  %56 = sext i32 %55 to i64
  %57 = getelementptr inbounds double, double* %53, i64 %56
  %58 = load double, double* %57, align 8
  %59 = fadd double %52, %58
  %60 = load double*, double** %7, align 8
  %61 = load i32, i32* %5, align 4
  %62 = sext i32 %61 to i64
  %63 = getelementptr inbounds double, double* %60, i64 %62
  store double %59, double* %63, align 8
  %64 = load double*, double** %8, align 8
  %65 = load i32, i32* %5, align 4
  %66 = sub nsw i32 %65, 1
  %67 = sext i32 %66 to i64
  %68 = getelementptr inbounds double, double* %64, i64 %67
  %69 = load double, double* %68, align 8
  %70 = load double*, double** %8, align 8
  %71 = load i32, i32* %5, align 4
  %72 = sub nsw i32 %71, 2
  %73 = sext i32 %72 to i64
  %74 = getelementptr inbounds double, double* %70, i64 %73
  %75 = load double, double* %74, align 8
  %76 = fadd double %69, %75
  %77 = load double*, double** %8, align 8
  %78 = load i32, i32* %5, align 4
  %79 = sext i32 %78 to i64
  %80 = getelementptr inbounds double, double* %77, i64 %79
  store double %76, double* %80, align 8
  %81 = load double*, double** %7, align 8
  %82 = load i32, i32* %5, align 4
  %83 = sext i32 %82 to i64
  %84 = getelementptr inbounds double, double* %81, i64 %83
  %85 = load double, double* %84, align 8
  %86 = load double*, double** %8, align 8
  %87 = load i32, i32* %5, align 4
  %88 = sext i32 %87 to i64
  %89 = getelementptr inbounds double, double* %86, i64 %88
  %90 = load double, double* %89, align 8
  %91 = fdiv double %85, %90
  %92 = load double, double* %6, align 8
  %93 = fadd double %92, %91
  store double %93, double* %6, align 8
  br label %94

94:                                               ; preds = %46
  %95 = load i32, i32* %5, align 4
  %96 = add nsw i32 %95, 1
  store i32 %96, i32* %5, align 4
  br label %42

97:                                               ; preds = %42
  br label %98

98:                                               ; preds = %97, %40
  br label %99

99:                                               ; preds = %98, %36
  %100 = load double, double* %6, align 8
  %101 = call i32 (i8*, ...) @printf(i8* getelementptr inbounds ([7 x i8], [7 x i8]* @.str.1, i64 0, i64 0), double %100)
  br label %102

102:                                              ; preds = %99
  %103 = load i32, i32* %4, align 4
  %104 = add nsw i32 %103, 1
  store i32 %104, i32* %4, align 4
  br label %10

105:                                              ; preds = %10
  ret i32 0
}

declare dso_local i32 @__isoc99_scanf(i8*, ...) #1

; Function Attrs: nounwind
declare dso_local noalias i8* @malloc(i64) #2

declare dso_local i32 @printf(i8*, ...) #1


!llvm.module.flags = !{!0}
!llvm.ident = !{!1}

!0 = !{i32 1, !"wchar_size", i32 4}
!1 = !{!"clang version 10.0.0-4ubuntu1 "}
